target datalayout = "e-m:e-p270:32:32-p271:32:32-p272:64:64-i64:64-i128:128-f80:128-n8:16:32:64-S128"
target triple = "x86_64-pc-linux-gnu"

%class.symbol = type { ptr }
%"class.datalog::product_relation_plugin" = type { %"class.datalog::relation_plugin.base", %"class.datalog::rel_spec_store" }
%"class.datalog::relation_plugin.base" = type <{ %"class.datalog::tr_infrastructure<datalog::relation_traits>::plugin_object", i32 }>
%"class.datalog::tr_infrastructure<datalog::relation_traits>::plugin_object" = type { ptr, i32, %class.symbol, ptr }
%"class.datalog::rel_spec_store" = type { ptr, %class.svector, %class.map.23, %class.map.27 }
%class.svector = type { %class.vector.22 }
%class.vector.22 = type { ptr }
%class.map.23 = type { %class.table2map.24 }
%class.table2map.24 = type { %class.core_hashtable.25 }
%class.core_hashtable.25 = type <{ ptr, i32, i32, i32, [4 x i8] }>
%class.map.27 = type { %class.table2map.28 }
%class.table2map.28 = type { %class.core_hashtable.29 }
%class.core_hashtable.29 = type <{ ptr, i32, i32, i32, [4 x i8] }>
%class.ptr_vector.33 = type { %class.vector.34 }
%class.vector.34 = type { ptr }
%"struct.datalog::rel_spec" = type { %class.svector }

@_ZN7datalog16product_relationC1ERNS_23product_relation_pluginERKNS_18relation_signatureEjPPNS_13relation_baseE = hidden unnamed_addr alias void (ptr, ptr, ptr, i32, ptr), ptr @_ZN7datalog16product_relationC2ERNS_23product_relation_pluginERKNS_18relation_signatureEjPPNS_13relation_baseE

; Function Attrs: mustprogress nounwind uwtable
define linkonce_odr hidden void @_ZN6vectorIiLb0EjEC2Ev(ptr noundef nonnull align 8 dereferenceable(8) %0) unnamed_addr #6 comdat align 2 {
  %2 = alloca ptr, align 8
  store ptr %0, ptr %2, align 8, !tbaa !79
  %3 = load ptr, ptr %2, align 8
  %4 = getelementptr inbounds nuw %class.vector.22, ptr %3, i32 0, i32 0
  store ptr null, ptr %4, align 8, !tbaa !81
  ret void
}

; Function Attrs: mustprogress nounwind uwtable
define linkonce_odr hidden void @_ZN6vectorIPN7datalog13relation_baseELb0EjEC2Ev(ptr noundef nonnull align 8 dereferenceable(8) %0) unnamed_addr #6 comdat align 2 {
  %2 = alloca ptr, align 8
  store ptr %0, ptr %2, align 8, !tbaa !86
  %3 = load ptr, ptr %2, align 8
  %4 = getelementptr inbounds nuw %class.vector.34, ptr %3, i32 0, i32 0
  store ptr null, ptr %4, align 8, !tbaa !90
  ret void
}

; Function Attrs: mustprogress nounwind uwtable
define linkonce_odr hidden void @_ZN7svectorIijEC2Ev(ptr noundef nonnull align 8 dereferenceable(8) %0) unnamed_addr #6 comdat align 2 {
  %2 = alloca ptr, align 8
  store ptr %0, ptr %2, align 8, !tbaa !446
  %3 = load ptr, ptr %2, align 8
  call void @_ZN6vectorIiLb0EjEC2Ev(ptr noundef nonnull align 8 dereferenceable(8) %3) #3
  ret void
}

; Function Attrs: mustprogress nounwind uwtable
define linkonce_odr hidden noundef ptr @_ZNK6vectorIPN7datalog13relation_baseELb0EjE4dataEv(ptr noundef nonnull align 8 dereferenceable(8) %0) #6 comdat align 2 {
  %2 = alloca ptr, align 8
  store ptr %0, ptr %2, align 8, !tbaa !86
  %3 = load ptr, ptr %2, align 8
  %4 = getelementptr inbounds nuw %class.vector.34, ptr %3, i32 0, i32 0
  %5 = load ptr, ptr %4, align 8, !tbaa !90
  ret ptr %5
}

; Function Attrs: mustprogress nounwind uwtable
define linkonce_odr hidden noundef i32 @_ZNK6vectorIPN7datalog13relation_baseELb0EjE4sizeEv(ptr noundef nonnull align 8 dereferenceable(8) %0) #6 comdat align 2 {
  %2 = alloca i32, align 4
  %3 = alloca ptr, align 8
  store ptr %0, ptr %3, align 8, !tbaa !86
  %4 = load ptr, ptr %3, align 8
  %5 = getelementptr inbounds nuw %class.vector.34, ptr %4, i32 0, i32 0
  %6 = load ptr, ptr %5, align 8, !tbaa !90
  %7 = icmp eq ptr %6, null
  br i1 %7, label %8, label %9

8:                                                ; preds = %1
  store i32 0, ptr %2, align 4
  br label %14

9:                                                ; preds = %1
  %10 = getelementptr inbounds nuw %class.vector.34, ptr %4, i32 0, i32 0
  %11 = load ptr, ptr %10, align 8, !tbaa !90
  %12 = getelementptr inbounds i32, ptr %11, i64 -1
  %13 = load i32, ptr %12, align 4, !tbaa !26
  store i32 %13, ptr %2, align 4
  br label %14

14:                                               ; preds = %9, %8
  %15 = load i32, ptr %2, align 4
  ret i32 %15
}

; Function Attrs: mustprogress uwtable
define linkonce_odr hidden noundef nonnull align 8 dereferenceable(8) ptr @_ZN6vectorIPN7datalog13relation_baseELb0EjE9push_backEOS2_(ptr noundef nonnull align 8 dereferenceable(8) %0, ptr noundef nonnull align 8 dereferenceable(8) %1) #4 comdat align 2 {
  %3 = alloca ptr, align 8
  %4 = alloca ptr, align 8
  store ptr %0, ptr %3, align 8, !tbaa !86
  store ptr %1, ptr %4, align 8, !tbaa !88
  %5 = load ptr, ptr %3, align 8
  %6 = getelementptr inbounds nuw %class.vector.34, ptr %5, i32 0, i32 0
  %7 = load ptr, ptr %6, align 8, !tbaa !90
  %8 = icmp eq ptr %7, null
  br i1 %8, label %19, label %9

9:                                                ; preds = %2
  %10 = getelementptr inbounds nuw %class.vector.34, ptr %5, i32 0, i32 0
  %11 = load ptr, ptr %10, align 8, !tbaa !90
  %12 = getelementptr inbounds i32, ptr %11, i64 -1
  %13 = load i32, ptr %12, align 4, !tbaa !26
  %14 = getelementptr inbounds nuw %class.vector.34, ptr %5, i32 0, i32 0
  %15 = load ptr, ptr %14, align 8, !tbaa !90
  %16 = getelementptr inbounds i32, ptr %15, i64 -2
  %17 = load i32, ptr %16, align 4, !tbaa !26
  %18 = icmp eq i32 %13, %17
  br i1 %18, label %19, label %20

19:                                               ; preds = %9, %2
  call void @_ZN6vectorIPN7datalog13relation_baseELb0EjE13expand_vectorEv(ptr noundef nonnull align 8 dereferenceable(8) %5)
  br label %20

20:                                               ; preds = %19, %9
  %21 = getelementptr inbounds nuw %class.vector.34, ptr %5, i32 0, i32 0
  %22 = load ptr, ptr %21, align 8, !tbaa !90
  %23 = getelementptr inbounds nuw %class.vector.34, ptr %5, i32 0, i32 0
  %24 = load ptr, ptr %23, align 8, !tbaa !90
  %25 = getelementptr inbounds i32, ptr %24, i64 -1
  %26 = load i32, ptr %25, align 4, !tbaa !26
  %27 = zext i32 %26 to i64
  %28 = getelementptr inbounds nuw ptr, ptr %22, i64 %27
  %29 = load ptr, ptr %4, align 8, !tbaa !88
  %30 = load ptr, ptr %29, align 8, !tbaa !52
  store ptr %30, ptr %28, align 8, !tbaa !52
  %31 = getelementptr inbounds nuw %class.vector.34, ptr %5, i32 0, i32 0
  %32 = load ptr, ptr %31, align 8, !tbaa !90
  %33 = getelementptr inbounds i32, ptr %32, i64 -1
  %34 = load i32, ptr %33, align 4, !tbaa !26
  %35 = add i32 %34, 1
  store i32 %35, ptr %33, align 4, !tbaa !26
  ret ptr %5
}

; Function Attrs: mustprogress nounwind uwtable
define linkonce_odr hidden noundef nonnull align 4 dereferenceable(4) ptr @_ZN6vectorIiLb0EjEixEj(ptr noundef nonnull align 8 dereferenceable(8) %0, i32 noundef %1) #6 comdat align 2 {
  %3 = alloca ptr, align 8
  %4 = alloca i32, align 4
  store ptr %0, ptr %3, align 8, !tbaa !79
  store i32 %1, ptr %4, align 4, !tbaa !26
  %5 = load ptr, ptr %3, align 8
  %6 = getelementptr inbounds nuw %class.vector.22, ptr %5, i32 0, i32 0
  %7 = load ptr, ptr %6, align 8, !tbaa !81
  %8 = load i32, ptr %4, align 4, !tbaa !26
  %9 = zext i32 %8 to i64
  %10 = getelementptr inbounds nuw i32, ptr %7, i64 %9
  ret ptr %10
}

; Function Attrs: mustprogress nounwind uwtable
define linkonce_odr hidden noundef nonnull align 8 dereferenceable(200) ptr @_ZNK7datalog17tr_infrastructureINS_15relation_traitsEE13plugin_object11get_managerEv(ptr noundef nonnull align 8 dereferenceable(32) %0) #6 comdat align 2 {
  %2 = alloca ptr, align 8
  store ptr %0, ptr %2, align 8, !tbaa !27
  %3 = load ptr, ptr %2, align 8
  %4 = getelementptr inbounds nuw %"class.datalog::tr_infrastructure<datalog::relation_traits>::plugin_object", ptr %3, i32 0, i32 3
  %5 = load ptr, ptr %4, align 8, !tbaa !92
  ret ptr %5
}

; Function Attrs: mustprogress nounwind uwtable
define linkonce_odr hidden noundef i32 @_ZNK6vectorIiLb0EjE4sizeEv(ptr noundef nonnull align 8 dereferenceable(8) %0) #6 comdat align 2 {
  %2 = alloca i32, align 4
  %3 = alloca ptr, align 8
  store ptr %0, ptr %3, align 8, !tbaa !79
  %4 = load ptr, ptr %3, align 8
  %5 = getelementptr inbounds nuw %class.vector.22, ptr %4, i32 0, i32 0
  %6 = load ptr, ptr %5, align 8, !tbaa !81
  %7 = icmp eq ptr %6, null
  br i1 %7, label %8, label %9

8:                                                ; preds = %1
  store i32 0, ptr %2, align 4
  br label %14

9:                                                ; preds = %1
  %10 = getelementptr inbounds nuw %class.vector.22, ptr %4, i32 0, i32 0
  %11 = load ptr, ptr %10, align 8, !tbaa !81
  %12 = getelementptr inbounds i32, ptr %11, i64 -1
  %13 = load i32, ptr %12, align 4, !tbaa !26
  store i32 %13, ptr %2, align 4
  br label %14

14:                                               ; preds = %9, %8
  %15 = load i32, ptr %2, align 4
  ret i32 %15
}

; Function Attrs: mustprogress nounwind uwtable
define linkonce_odr hidden void @_ZN10ptr_vectorIN7datalog13relation_baseEEC2Ev(ptr noundef nonnull align 8 dereferenceable(8) %0) unnamed_addr #6 comdat align 2 {
  %2 = alloca ptr, align 8
  store ptr %0, ptr %2, align 8, !tbaa !84
  %3 = load ptr, ptr %2, align 8
  call void @_ZN6vectorIPN7datalog13relation_baseELb0EjEC2Ev(ptr noundef nonnull align 8 dereferenceable(8) %3) #3
  ret void
}

; Function Attrs: inlinehint mustprogress nounwind uwtable
define linkonce_odr hidden void @_ZN7datalog8rel_specC2Ev(ptr noundef nonnull align 8 dereferenceable(8) %0) unnamed_addr #9 comdat align 2 {
  %2 = alloca ptr, align 8
  store ptr %0, ptr %2, align 8, !tbaa !32
  %3 = load ptr, ptr %2, align 8
  call void @_ZN7svectorIijEC2Ev(ptr noundef nonnull align 8 dereferenceable(8) %3) #3
  ret void
}

; Function Attrs: mustprogress uwtable
define hidden noundef ptr @_ZN7datalog23product_relation_plugin8mk_emptyERKNS_18relation_signatureEi(ptr noundef nonnull align 8 dereferenceable(104) %0, ptr noundef nonnull align 8 dereferenceable(8) %1, i32 noundef %2) unnamed_addr #4 align 2 personality ptr @__gxx_personality_v0 {
  %4 = alloca ptr, align 8
  %5 = alloca ptr, align 8
  %6 = alloca i32, align 4
  %7 = alloca %"struct.datalog::rel_spec", align 8
  %8 = alloca ptr, align 8
  %9 = alloca i32, align 4
  %10 = alloca %class.ptr_vector.33, align 8
  %11 = alloca i32, align 4
  %12 = alloca i32, align 4
  %13 = alloca ptr, align 8
  store ptr %0, ptr %4, align 8, !tbaa !8
  store ptr %1, ptr %5, align 8, !tbaa !30
  store i32 %2, ptr %6, align 4, !tbaa !26
  %14 = load ptr, ptr %4, align 8
  call void @llvm.lifetime.start.p0(i64 8, ptr %7) #3
  call void @_ZN7datalog8rel_specC2Ev(ptr noundef nonnull align 8 dereferenceable(8) %7) #3
  %15 = getelementptr inbounds nuw %"class.datalog::product_relation_plugin", ptr %14, i32 0, i32 1
  %16 = load ptr, ptr %5, align 8, !tbaa !30
  %17 = load i32, ptr %6, align 4, !tbaa !26
  invoke void @_ZN7datalog14rel_spec_storeINS_8rel_specE12svector_hashINS_23product_relation_plugin8fid_hashEENS_14vector_eq_procIS1_EEE17get_relation_specERKNS_18relation_signatureEiRS1_(ptr noundef nonnull align 8 dereferenceable(64) %15, ptr noundef nonnull align 8 dereferenceable(8) %16, i32 noundef %17, ptr noundef nonnull align 8 dereferenceable(8) %7)
          to label %18 unwind label %26

18:                                               ; preds = %3
  call void @llvm.lifetime.start.p0(i64 8, ptr %10) #3
  call void @_ZN10ptr_vectorIN7datalog13relation_baseEEC2Ev(ptr noundef nonnull align 8 dereferenceable(8) %10) #3
  call void @llvm.lifetime.start.p0(i64 4, ptr %11) #3
  %19 = invoke noundef i32 @_ZNK6vectorIiLb0EjE4sizeEv(ptr noundef nonnull align 8 dereferenceable(8) %7)
          to label %20 unwind label %30

20:                                               ; preds = %18
  store i32 %19, ptr %11, align 4, !tbaa !26
  call void @llvm.lifetime.start.p0(i64 4, ptr %12) #3
  store i32 0, ptr %12, align 4, !tbaa !26
  br label %21

21:                                               ; preds = %46, %20
  %22 = load i32, ptr %12, align 4, !tbaa !26
  %23 = load i32, ptr %11, align 4, !tbaa !26
  %24 = icmp ult i32 %22, %23
  br i1 %24, label %34, label %25

25:                                               ; preds = %21
  call void @llvm.lifetime.end.p0(i64 4, ptr %12) #3
  br label %53

26:                                               ; preds = %3
  %27 = landingpad { ptr, i32 }
          cleanup
  %28 = extractvalue { ptr, i32 } %27, 0
  store ptr %28, ptr %8, align 8
  %29 = extractvalue { ptr, i32 } %27, 1
  store i32 %29, ptr %9, align 4
  br label %63

30:                                               ; preds = %60, %58, %55, %53, %18
  %31 = landingpad { ptr, i32 }
          cleanup
  %32 = extractvalue { ptr, i32 } %31, 0
  store ptr %32, ptr %8, align 8
  %33 = extractvalue { ptr, i32 } %31, 1
  store i32 %33, ptr %9, align 4
  br label %62

34:                                               ; preds = %21
  call void @llvm.lifetime.start.p0(i64 8, ptr %13) #3
  %35 = invoke noundef nonnull align 8 dereferenceable(200) ptr @_ZNK7datalog17tr_infrastructureINS_15relation_traitsEE13plugin_object11get_managerEv(ptr noundef nonnull align 8 dereferenceable(32) %14)
          to label %36 unwind label %49

36:                                               ; preds = %34
  %37 = load ptr, ptr %5, align 8, !tbaa !30
  %38 = load i32, ptr %12, align 4, !tbaa !26
  %39 = invoke noundef nonnull align 4 dereferenceable(4) ptr @_ZN6vectorIiLb0EjEixEj(ptr noundef nonnull align 8 dereferenceable(8) %7, i32 noundef %38)
          to label %40 unwind label %49

40:                                               ; preds = %36
  %41 = load i32, ptr %39, align 4, !tbaa !26
  %42 = invoke noundef ptr @_ZN7datalog16relation_manager17mk_empty_relationERKNS_18relation_signatureEi(ptr noundef nonnull align 8 dereferenceable(200) %35, ptr noundef nonnull align 8 dereferenceable(8) %37, i32 noundef %41)
          to label %43 unwind label %49

43:                                               ; preds = %40
  store ptr %42, ptr %13, align 8, !tbaa !52
  %44 = invoke noundef nonnull align 8 dereferenceable(8) ptr @_ZN6vectorIPN7datalog13relation_baseELb0EjE9push_backEOS2_(ptr noundef nonnull align 8 dereferenceable(8) %10, ptr noundef nonnull align 8 dereferenceable(8) %13)
          to label %45 unwind label %49

45:                                               ; preds = %43
  call void @llvm.lifetime.end.p0(i64 8, ptr %13) #3
  br label %46

46:                                               ; preds = %45
  %47 = load i32, ptr %12, align 4, !tbaa !26
  %48 = add i32 %47, 1
  store i32 %48, ptr %12, align 4, !tbaa !26
  br label %21, !llvm.loop !83

49:                                               ; preds = %43, %40, %36, %34
  %50 = landingpad { ptr, i32 }
          cleanup
  %51 = extractvalue { ptr, i32 } %50, 0
  store ptr %51, ptr %8, align 8
  %52 = extractvalue { ptr, i32 } %50, 1
  store i32 %52, ptr %9, align 4
  call void @llvm.lifetime.end.p0(i64 8, ptr %13) #3
  call void @llvm.lifetime.end.p0(i64 4, ptr %12) #3
  br label %62

53:                                               ; preds = %25
  %54 = invoke noalias noundef ptr @_ZN6memory8allocateEm(i64 noundef 48)
          to label %55 unwind label %30

55:                                               ; preds = %53
  %56 = load ptr, ptr %5, align 8, !tbaa !30
  %57 = invoke noundef i32 @_ZNK6vectorIPN7datalog13relation_baseELb0EjE4sizeEv(ptr noundef nonnull align 8 dereferenceable(8) %10)
          to label %58 unwind label %30

58:                                               ; preds = %55
  %59 = invoke noundef ptr @_ZNK6vectorIPN7datalog13relation_baseELb0EjE4dataEv(ptr noundef nonnull align 8 dereferenceable(8) %10)
          to label %60 unwind label %30

60:                                               ; preds = %58
  invoke void @_ZN7datalog16product_relationC1ERNS_23product_relation_pluginERKNS_18relation_signatureEjPPNS_13relation_baseE(ptr noundef nonnull align 8 dereferenceable(48) %54, ptr noundef nonnull align 8 dereferenceable(104) %14, ptr noundef nonnull align 8 dereferenceable(8) %56, i32 noundef %57, ptr noundef %59)
          to label %61 unwind label %30

61:                                               ; preds = %60
  call void @llvm.lifetime.end.p0(i64 4, ptr %11) #3
  call void @_ZN6vectorIPN7datalog13relation_baseELb0EjED2Ev(ptr noundef nonnull align 8 dereferenceable(8) %10) #3
  call void @llvm.lifetime.end.p0(i64 8, ptr %10) #3
  call void @_ZN6vectorIiLb0EjED2Ev(ptr noundef nonnull align 8 dereferenceable(8) %7) #3
  call void @llvm.lifetime.end.p0(i64 8, ptr %7) #3
  ret ptr %54

62:                                               ; preds = %49, %30
  call void @llvm.lifetime.end.p0(i64 4, ptr %11) #3
  call void @_ZN6vectorIPN7datalog13relation_baseELb0EjED2Ev(ptr noundef nonnull align 8 dereferenceable(8) %10) #3
  call void @llvm.lifetime.end.p0(i64 8, ptr %10) #3
  br label %63

63:                                               ; preds = %62, %26
  call void @_ZN6vectorIiLb0EjED2Ev(ptr noundef nonnull align 8 dereferenceable(8) %7) #3
  call void @llvm.lifetime.end.p0(i64 8, ptr %7) #3
  br label %64

64:                                               ; preds = %63
  %65 = load ptr, ptr %8, align 8
  %66 = load i32, ptr %9, align 4
  %67 = insertvalue { ptr, i32 } poison, ptr %65, 0
  %68 = insertvalue { ptr, i32 } %67, i32 %66, 1
  resume { ptr, i32 } %68
}