; Function Attrs: mustprogress uwtable
define hidden noundef ptr @_ZN7datalog23product_relation_plugin8mk_emptyERKNS_18relation_signatureEi(ptr noundef nonnull align 8 dereferenceable(104) %0, ptr noundef nonnull align 8 dereferenceable(8) %1, i32 noundef %2) unnamed_addr #3 align 2 personality ptr @__gxx_personality_v0 {
  %4 = alloca %"struct.datalog::rel_spec", align 8
  %5 = alloca %class.ptr_vector.33, align 8
  call void @llvm.lifetime.start.p0(i64 8, ptr nonnull %4) #26
  store ptr null, ptr %4, align 8, !tbaa !21
  %6 = getelementptr inbounds nuw i8, ptr %0, i64 40
  invoke void @_ZN7datalog14rel_spec_storeINS_8rel_specE12svector_hashINS_23product_relation_plugin8fid_hashEENS_14vector_eq_procIS1_EEE17get_relation_specERKNS_18relation_signatureEiRS1_(ptr noundef nonnull align 8 dereferenceable(64) %6, ptr noundef nonnull align 8 dereferenceable(8) %1, i32 noundef %2, ptr noundef nonnull align 8 dereferenceable(8) %4)
          to label %7 unwind label %14

7:                                                ; preds = %3
  call void @llvm.lifetime.start.p0(i64 8, ptr nonnull %5) #26
  store ptr null, ptr %5, align 8, !tbaa !89
  %8 = load ptr, ptr %4, align 8, !tbaa !21
  %9 = icmp eq ptr %8, null
  br i1 %9, label %._crit_edge, label %_ZNK6vectorIiLb0EjE4sizeEv.exit

_ZNK6vectorIiLb0EjE4sizeEv.exit:                  ; preds = %7
  %10 = getelementptr inbounds i8, ptr %8, i64 -4
  %11 = load i32, ptr %10, align 4, !tbaa !39
  %.not = icmp eq i32 %11, 0
  br i1 %.not, label %._crit_edge, label %.lr.ph

.lr.ph:                                           ; preds = %_ZNK6vectorIiLb0EjE4sizeEv.exit
  %12 = getelementptr inbounds nuw i8, ptr %0, i64 24
  %wide.trip.count = zext i32 %11 to i64
  br label %18

._crit_edge:                                      ; preds = %34, %7, %_ZNK6vectorIiLb0EjE4sizeEv.exit
  %13 = invoke noalias noundef ptr @_ZN6memory8allocateEm(i64 noundef 48)
          to label %43 unwind label %16

14:                                               ; preds = %3
  %15 = landingpad { ptr, i32 }
          cleanup
  br label %63

16:                                               ; preds = %_ZNK6vectorIPN7datalog13relation_baseELb0EjE4sizeEv.exit, %._crit_edge
  %17 = landingpad { ptr, i32 }
          cleanup
  br label %62

18:                                               ; preds = %.lr.ph, %34
  %indvars.iv = phi i64 [ 0, %.lr.ph ], [ %indvars.iv.next, %34 ]
  %19 = load ptr, ptr %12, align 8, !tbaa !85
  %20 = load ptr, ptr %4, align 8, !tbaa !21
  %21 = getelementptr inbounds nuw i32, ptr %20, i64 %indvars.iv
  %22 = load i32, ptr %21, align 4, !tbaa !39
  %23 = invoke noundef ptr @_ZN7datalog16relation_manager17mk_empty_relationERKNS_18relation_signatureEi(ptr noundef nonnull align 8 dereferenceable(200) %19, ptr noundef nonnull align 8 dereferenceable(8) %1, i32 noundef %22)
          to label %24 unwind label %41

24:                                               ; preds = %18
  %25 = load ptr, ptr %5, align 8, !tbaa !89
  %26 = icmp eq ptr %25, null
  br i1 %26, label %33, label %27

27:                                               ; preds = %24
  %28 = getelementptr inbounds i8, ptr %25, i64 -4
  %29 = load i32, ptr %28, align 4, !tbaa !39
  %30 = getelementptr inbounds i8, ptr %25, i64 -8
  %31 = load i32, ptr %30, align 4, !tbaa !39
  %32 = icmp eq i32 %29, %31
  br i1 %32, label %33, label %34

33:                                               ; preds = %27, %24
  invoke void @_ZN6vectorIPN7datalog13relation_baseELb0EjE13expand_vectorEv(ptr noundef nonnull align 8 dereferenceable(8) %5)
          to label %.noexc unwind label %41

.noexc:                                           ; preds = %33
  %.pre.i = load ptr, ptr %5, align 8, !tbaa !89
  %.phi.trans.insert.i = getelementptr inbounds i8, ptr %.pre.i, i64 -4
  %.pre2.i = load i32, ptr %.phi.trans.insert.i, align 4, !tbaa !39
  br label %34

34:                                               ; preds = %.noexc, %27
  %35 = phi i32 [ %.pre2.i, %.noexc ], [ %29, %27 ]
  %36 = phi ptr [ %.pre.i, %.noexc ], [ %25, %27 ]
  %37 = getelementptr inbounds i8, ptr %36, i64 -4
  %38 = zext i32 %35 to i64
  %39 = getelementptr inbounds nuw ptr, ptr %36, i64 %38
  store ptr %23, ptr %39, align 8, !tbaa !92
  %40 = add i32 %35, 1
  store i32 %40, ptr %37, align 4, !tbaa !39
  %indvars.iv.next = add nuw nsw i64 %indvars.iv, 1
  %exitcond.not = icmp eq i64 %indvars.iv.next, %wide.trip.count
  br i1 %exitcond.not, label %._crit_edge, label %18, !llvm.loop !111

41:                                               ; preds = %33, %18
  %42 = landingpad { ptr, i32 }
          cleanup
  br label %62

43:                                               ; preds = %._crit_edge
  %44 = load ptr, ptr %5, align 8, !tbaa !89
  %45 = icmp eq ptr %44, null
  br i1 %45, label %_ZNK6vectorIPN7datalog13relation_baseELb0EjE4sizeEv.exit, label %46

46:                                               ; preds = %43
  %47 = getelementptr inbounds i8, ptr %44, i64 -4
  %48 = load i32, ptr %47, align 4, !tbaa !39
  br label %_ZNK6vectorIPN7datalog13relation_baseELb0EjE4sizeEv.exit

_ZNK6vectorIPN7datalog13relation_baseELb0EjE4sizeEv.exit: ; preds = %43, %46
  %.0.i15 = phi i32 [ %48, %46 ], [ 0, %43 ]
  invoke void @_ZN7datalog16product_relationC2ERNS_23product_relation_pluginERKNS_18relation_signatureEjPPNS_13relation_baseE(ptr noundef nonnull align 8 dereferenceable(48) %13, ptr noundef nonnull align 8 dereferenceable(104) %0, ptr noundef nonnull align 8 dereferenceable(8) %1, i32 noundef %.0.i15, ptr noundef %44)
          to label %49 unwind label %16

49:                                               ; preds = %_ZNK6vectorIPN7datalog13relation_baseELb0EjE4sizeEv.exit
  %50 = load ptr, ptr %5, align 8, !tbaa !89
  %.not.i.i = icmp eq ptr %50, null
  br i1 %.not.i.i, label %_ZN6vectorIPN7datalog13relation_baseELb0EjED2Ev.exit, label %51

51:                                               ; preds = %49
  %52 = getelementptr inbounds i8, ptr %50, i64 -8
  invoke void @_ZN6memory10deallocateEPv(ptr noundef nonnull %52)
          to label %_ZN6vectorIPN7datalog13relation_baseELb0EjED2Ev.exit unwind label %53

53:                                               ; preds = %51
  %54 = landingpad { ptr, i32 }
          catch ptr null
  %55 = extractvalue { ptr, i32 } %54, 0
  call void @__clang_call_terminate(ptr %55) #28
  unreachable

_ZN6vectorIPN7datalog13relation_baseELb0EjED2Ev.exit: ; preds = %49, %51
  call void @llvm.lifetime.end.p0(i64 8, ptr nonnull %5) #26
  %56 = load ptr, ptr %4, align 8, !tbaa !21
  %.not.i.i16 = icmp eq ptr %56, null
  br i1 %.not.i.i16, label %_ZN6vectorIiLb0EjED2Ev.exit, label %57

57:                                               ; preds = %_ZN6vectorIPN7datalog13relation_baseELb0EjED2Ev.exit
  %58 = getelementptr inbounds i8, ptr %56, i64 -8
  invoke void @_ZN6memory10deallocateEPv(ptr noundef nonnull %58)
          to label %_ZN6vectorIiLb0EjED2Ev.exit unwind label %59

59:                                               ; preds = %57
  %60 = landingpad { ptr, i32 }
          catch ptr null
  %61 = extractvalue { ptr, i32 } %60, 0
  call void @__clang_call_terminate(ptr %61) #28
  unreachable

_ZN6vectorIiLb0EjED2Ev.exit:                      ; preds = %_ZN6vectorIPN7datalog13relation_baseELb0EjED2Ev.exit, %57
  call void @llvm.lifetime.end.p0(i64 8, ptr nonnull %4) #26
  ret ptr %13

62:                                               ; preds = %41, %16
  %.pn = phi { ptr, i32 } [ %42, %41 ], [ %17, %16 ]
  call void @_ZN6vectorIPN7datalog13relation_baseELb0EjED2Ev(ptr noundef nonnull align 8 dereferenceable(8) %5) #26
  call void @llvm.lifetime.end.p0(i64 8, ptr nonnull %5) #26
  br label %63

63:                                               ; preds = %62, %14
  %.pn.pn = phi { ptr, i32 } [ %.pn, %62 ], [ %15, %14 ]
  call void @_ZN6vectorIiLb0EjED2Ev(ptr noundef nonnull align 8 dereferenceable(8) %4) #26
  call void @llvm.lifetime.end.p0(i64 8, ptr nonnull %4) #26
  resume { ptr, i32 } %.pn.pn
}